target datalayout = "e-m:e-p270:32:32-p271:32:32-p272:64:64-i64:64-f80:128-n8:16:32:64-S128"
target triple = "x86_64-pc-linux-gnu"

%struct.BOOK = type { i32, [27 x i8] }

@.str = private unnamed_addr constant [3 x i8] c"%d\00", align 1
@.str.1 = private unnamed_addr constant [5 x i8] c"%d%s\00", align 1
@book = common dso_local global [999 x %struct.BOOK] zeroinitializer, align 16
@.str.2 = private unnamed_addr constant [7 x i8] c"%c\0A%d\0A\00", align 1
@.str.3 = private unnamed_addr constant [4 x i8] c"%d\0A\00", align 1

; Function Attrs: noinline nounwind uwtable
define dso_local i32 @main() #0 {
  %1 = alloca i32, align 4
  %2 = alloca [26 x i32], align 16
  %3 = alloca i32, align 4
  %4 = alloca i32, align 4
  %5 = alloca i32, align 4
  %6 = alloca i32, align 4
  %7 = alloca i32, align 4
  %8 = alloca i32, align 4
  %9 = alloca i32, align 4
  store i32 0, i32* %1, align 4
  %10 = bitcast [26 x i32]* %2 to i8*
  call void @llvm.memset.p0i8.i64(i8* align 16 %10, i8 0, i64 104, i1 false)
  store i32 0, i32* %3, align 4
  %11 = call i32 (i8*, ...) @__isoc99_scanf(i8* getelementptr inbounds ([3 x i8], [3 x i8]* @.str, i64 0, i64 0), i32* %4)
  store i32 0, i32* %7, align 4
  br label %12

12:                                               ; preds = %26, %0
  %13 = load i32, i32* %7, align 4
  %14 = load i32, i32* %4, align 4
  %15 = icmp slt i32 %13, %14
  br i1 %15, label %16, label %29

16:                                               ; preds = %12
  %17 = load i32, i32* %7, align 4
  %18 = sext i32 %17 to i64
  %19 = getelementptr inbounds [999 x %struct.BOOK], [999 x %struct.BOOK]* @book, i64 0, i64 %18
  %20 = getelementptr inbounds %struct.BOOK, %struct.BOOK* %19, i32 0, i32 0
  %21 = load i32, i32* %7, align 4
  %22 = sext i32 %21 to i64
  %23 = getelementptr inbounds [999 x %struct.BOOK], [999 x %struct.BOOK]* @book, i64 0, i64 %22
  %24 = getelementptr inbounds %struct.BOOK, %struct.BOOK* %23, i32 0, i32 1
  %25 = call i32 (i8*, ...) @__isoc99_scanf(i8* getelementptr inbounds ([5 x i8], [5 x i8]* @.str.1, i64 0, i64 0), i32* %20, [27 x i8]* %24)
  br label %26

26:                                               ; preds = %16
  %27 = load i32, i32* %7, align 4
  %28 = add nsw i32 %27, 1
  store i32 %28, i32* %7, align 4
  br label %12

29:                                               ; preds = %12
  store i32 0, i32* %7, align 4
  br label %30

30:                                               ; preds = %65, %29
  %31 = load i32, i32* %7, align 4
  %32 = load i32, i32* %4, align 4
  %33 = icmp slt i32 %31, %32
  br i1 %33, label %34, label %68

34:                                               ; preds = %30
  store i32 0, i32* %8, align 4
  br label %35

35:                                               ; preds = %61, %34
  %36 = load i32, i32* %8, align 4
  %37 = sext i32 %36 to i64
  %38 = load i32, i32* %7, align 4
  %39 = sext i32 %38 to i64
  %40 = getelementptr inbounds [999 x %struct.BOOK], [999 x %struct.BOOK]* @book, i64 0, i64 %39
  %41 = getelementptr inbounds %struct.BOOK, %struct.BOOK* %40, i32 0, i32 1
  %42 = getelementptr inbounds [27 x i8], [27 x i8]* %41, i64 0, i64 0
  %43 = call i64 @strlen(i8* %42) #4
  %44 = icmp ult i64 %37, %43
  br i1 %44, label %45, label %64

45:                                               ; preds = %35
  %46 = load i32, i32* %7, align 4
  %47 = sext i32 %46 to i64
  %48 = getelementptr inbounds [999 x %struct.BOOK], [999 x %struct.BOOK]* @book, i64 0, i64 %47
  %49 = getelementptr inbounds %struct.BOOK, %struct.BOOK* %48, i32 0, i32 1
  %50 = load i32, i32* %8, align 4
  %51 = sext i32 %50 to i64
  %52 = getelementptr inbounds [27 x i8], [27 x i8]* %49, i64 0, i64 %51
  %53 = load i8, i8* %52, align 1
  %54 = sext i8 %53 to i32
  %55 = sub nsw i32 %54, 65
  store i32 %55, i32* %5, align 4
  %56 = load i32, i32* %5, align 4
  %57 = sext i32 %56 to i64
  %58 = getelementptr inbounds [26 x i32], [26 x i32]* %2, i64 0, i64 %57
  %59 = load i32, i32* %58, align 4
  %60 = add nsw i32 %59, 1
  store i32 %60, i32* %58, align 4
  br label %61

61:                                               ; preds = %45
  %62 = load i32, i32* %8, align 4
  %63 = add nsw i32 %62, 1
  store i32 %63, i32* %8, align 4
  br label %35

64:                                               ; preds = %35
  br label %65

65:                                               ; preds = %64
  %66 = load i32, i32* %7, align 4
  %67 = add nsw i32 %66, 1
  store i32 %67, i32* %7, align 4
  br label %30

68:                                               ; preds = %30
  %69 = getelementptr inbounds [26 x i32], [26 x i32]* %2, i64 0, i64 0
  %70 = load i32, i32* %69, align 16
  store i32 %70, i32* %9, align 4
  store i32 0, i32* %5, align 4
  br label %71

71:                                               ; preds = %87, %68
  %72 = load i32, i32* %5, align 4
  %73 = icmp slt i32 %72, 26
  br i1 %73, label %74, label %90

74:                                               ; preds = %71
  %75 = load i32, i32* %5, align 4
  %76 = sext i32 %75 to i64
  %77 = getelementptr inbounds [26 x i32], [26 x i32]* %2, i64 0, i64 %76
  %78 = load i32, i32* %77, align 4
  %79 = load i32, i32* %9, align 4
  %80 = icmp sgt i32 %78, %79
  br i1 %80, label %81, label %86

81:                                               ; preds = %74
  %82 = load i32, i32* %5, align 4
  %83 = sext i32 %82 to i64
  %84 = getelementptr inbounds [26 x i32], [26 x i32]* %2, i64 0, i64 %83
  %85 = load i32, i32* %84, align 4
  store i32 %85, i32* %9, align 4
  br label %86

86:                                               ; preds = %81, %74
  br label %87

87:                                               ; preds = %86
  %88 = load i32, i32* %5, align 4
  %89 = add nsw i32 %88, 1
  store i32 %89, i32* %5, align 4
  br label %71

90:                                               ; preds = %71
  store i32 0, i32* %5, align 4
  br label %91

91:                                               ; preds = %108, %90
  %92 = load i32, i32* %5, align 4
  %93 = icmp slt i32 %92, 26
  br i1 %93, label %94, label %111

94:                                               ; preds = %91
  %95 = load i32, i32* %9, align 4
  %96 = load i32, i32* %5, align 4
  %97 = sext i32 %96 to i64
  %98 = getelementptr inbounds [26 x i32], [26 x i32]* %2, i64 0, i64 %97
  %99 = load i32, i32* %98, align 4
  %100 = icmp eq i32 %95, %99
  br i1 %100, label %101, label %107

101:                                              ; preds = %94
  %102 = load i32, i32* %5, align 4
  store i32 %102, i32* %6, align 4
  %103 = load i32, i32* %5, align 4
  %104 = add nsw i32 %103, 65
  %105 = load i32, i32* %9, align 4
  %106 = call i32 (i8*, ...) @printf(i8* getelementptr inbounds ([7 x i8], [7 x i8]* @.str.2, i64 0, i64 0), i32 %104, i32 %105)
  br label %111

107:                                              ; preds = %94
  br label %108

108:                                              ; preds = %107
  %109 = load i32, i32* %5, align 4
  %110 = add nsw i32 %109, 1
  store i32 %110, i32* %5, align 4
  br label %91

111:                                              ; preds = %101, %91
  store i32 0, i32* %7, align 4
  br label %112

112:                                              ; preds = %152, %111
  %113 = load i32, i32* %7, align 4
  %114 = load i32, i32* %4, align 4
  %115 = icmp slt i32 %113, %114
  br i1 %115, label %116, label %155

116:                                              ; preds = %112
  store i32 0, i32* %8, align 4
  br label %117

117:                                              ; preds = %148, %116
  %118 = load i32, i32* %8, align 4
  %119 = sext i32 %118 to i64
  %120 = load i32, i32* %7, align 4
  %121 = sext i32 %120 to i64
  %122 = getelementptr inbounds [999 x %struct.BOOK], [999 x %struct.BOOK]* @book, i64 0, i64 %121
  %123 = getelementptr inbounds %struct.BOOK, %struct.BOOK* %122, i32 0, i32 1
  %124 = getelementptr inbounds [27 x i8], [27 x i8]* %123, i64 0, i64 0
  %125 = call i64 @strlen(i8* %124) #4
  %126 = icmp ult i64 %119, %125
  br i1 %126, label %127, label %151

127:                                              ; preds = %117
  %128 = load i32, i32* %6, align 4
  %129 = load i32, i32* %7, align 4
  %130 = sext i32 %129 to i64
  %131 = getelementptr inbounds [999 x %struct.BOOK], [999 x %struct.BOOK]* @book, i64 0, i64 %130
  %132 = getelementptr inbounds %struct.BOOK, %struct.BOOK* %131, i32 0, i32 1
  %133 = load i32, i32* %8, align 4
  %134 = sext i32 %133 to i64
  %135 = getelementptr inbounds [27 x i8], [27 x i8]* %132, i64 0, i64 %134
  %136 = load i8, i8* %135, align 1
  %137 = sext i8 %136 to i32
  %138 = sub nsw i32 %137, 65
  %139 = icmp eq i32 %128, %138
  br i1 %139, label %140, label %147

140:                                              ; preds = %127
  %141 = load i32, i32* %7, align 4
  %142 = sext i32 %141 to i64
  %143 = getelementptr inbounds [999 x %struct.BOOK], [999 x %struct.BOOK]* @book, i64 0, i64 %142
  %144 = getelementptr inbounds %struct.BOOK, %struct.BOOK* %143, i32 0, i32 0
  %145 = load i32, i32* %144, align 16
  %146 = call i32 (i8*, ...) @printf(i8* getelementptr inbounds ([4 x i8], [4 x i8]* @.str.3, i64 0, i64 0), i32 %145)
  br label %147

147:                                              ; preds = %140, %127
  br label %148

148:                                              ; preds = %147
  %149 = load i32, i32* %8, align 4
  %150 = add nsw i32 %149, 1
  store i32 %150, i32* %8, align 4
  br label %117

151:                                              ; preds = %117
  br label %152

152:                                              ; preds = %151
  %153 = load i32, i32* %7, align 4
  %154 = add nsw i32 %153, 1
  store i32 %154, i32* %7, align 4
  br label %112

155:                                              ; preds = %112
  %156 = load i32, i32* %1, align 4
  ret i32 %156
}